target datalayout = "e-m:e-p270:32:32-p271:32:32-p272:64:64-i64:64-i128:128-f80:128-n8:16:32:64-S128"
target triple = "x86_64-pc-linux-gnu"

%struct.darktable_t = type { %struct.dt_codepath_t, i32, i32, ptr, ptr, ptr, ptr, ptr, ptr, ptr, ptr, ptr, ptr, ptr, ptr, ptr, ptr, ptr, ptr, ptr, ptr, ptr, ptr, ptr, ptr, ptr, ptr, ptr, ptr, ptr, [64 x %struct.dt_pthread_mutex_t], %struct.dt_pthread_mutex_t, %struct.dt_pthread_mutex_t, %struct.dt_pthread_mutex_t, %struct.dt_pthread_mutex_t, %struct.dt_pthread_mutex_t, ptr, ptr, ptr, ptr, ptr, ptr, ptr, ptr, ptr, ptr, ptr, ptr, ptr, %struct.dt_lua_state_t, ptr, double, ptr, i32, [47 x i32], i32, i32, ptr, ptr, %struct.dt_sys_resources_t, %struct.dt_backthumb_t, %struct.dt_gimp_t }
%struct.dt_codepath_t = type { i8, [3 x i8] }
%struct.dt_pthread_mutex_t = type { %union.pthread_mutex_t }
%union.pthread_mutex_t = type { %struct.__pthread_mutex_s }
%struct.__pthread_mutex_s = type { i32, i32, i32, i32, i32, i16, i16, %struct.__pthread_internal_list }
%struct.__pthread_internal_list = type { ptr, ptr }
%struct.dt_lua_state_t = type { i32 }
%struct.dt_sys_resources_t = type { i64, i64, ptr, ptr, i32 }
%struct.dt_backthumb_t = type { double, double, i32, i32, i32, i32 }
%struct.dt_gimp_t = type { i32, ptr, ptr, i32, i32 }

@darktable = external global %struct.darktable_t, align 8
@.str.2 = private unnamed_addr constant [41 x i8] c"[sql] %s:%d, function %s(): prepare \22%s\22\00", align 1
@.str.3 = private unnamed_addr constant [115 x i8] c"generated/home/dtcxzyw/WorkSpace/Projects/compilers/llvm-opt-benchmark/bench/darktable/darktable/src/common/film.c\00", align 1
@.str.4 = private unnamed_addr constant [53 x i8] c"SELECT id, folder FROM main.film_rolls WHERE id = ?1\00", align 1
@stderr = external global ptr, align 8
@.str.5 = private unnamed_addr constant [53 x i8] c"sqlite3 error: %s:%d, function %s(), query \22%s\22: %s\0A\00", align 1
@.str.6 = private unnamed_addr constant [41 x i8] c"sqlite3 error: %s:%d, function %s(): %s\0A\00", align 1
@__FUNCTION__.dt_film_open = private unnamed_addr constant [13 x i8] c"dt_film_open\00", align 1
@.str.9 = private unnamed_addr constant [82 x i8] c"UPDATE main.film_rolls SET access_timestamp = strftime('%s', 'now') WHERE id = ?1\00", align 1

; Function Attrs: nounwind uwtable
define i32 @dt_film_open(i32 noundef %0) #0 {
  %2 = alloca i32, align 4
  %3 = alloca ptr, align 8
  %4 = alloca i32, align 4
  %5 = alloca i32, align 4
  %6 = alloca i32, align 4
  %7 = alloca i32, align 4
  store i32 %0, ptr %2, align 4, !tbaa !24
  call void @llvm.lifetime.start.p0(i64 8, ptr %3) #8
  br label %8

8:                                                ; preds = %1
  br label %9

9:                                                ; preds = %8
  %10 = load i32, ptr getelementptr inbounds nuw (%struct.darktable_t, ptr @darktable, i32 0, i32 2), align 8, !tbaa !25
  %11 = and i32 256, %10
  %12 = icmp ne i32 %11, 0
  br i1 %12, label %13, label %19

13:                                               ; preds = %9
  %14 = load i32, ptr getelementptr inbounds nuw (%struct.darktable_t, ptr @darktable, i32 0, i32 2), align 8, !tbaa !25
  %15 = xor i32 %14, -1
  %16 = and i32 0, %15
  %17 = icmp ne i32 %16, 0
  br i1 %17, label %19, label %18

18:                                               ; preds = %13
  call void (ptr, ...) @dt_print_ext(ptr noundef @.str.2, ptr noundef @.str.3, i32 noundef 148, ptr noundef @__FUNCTION__.dt_film_open, ptr noundef @.str.4)
  br label %19

19:                                               ; preds = %18, %13, %9
  br label %20

20:                                               ; preds = %19
  br label %21

21:                                               ; preds = %20
  call void @llvm.lifetime.start.p0(i64 4, ptr %4) #8
  %22 = load ptr, ptr getelementptr inbounds nuw (%struct.darktable_t, ptr @darktable, i32 0, i32 18), align 8, !tbaa !62
  %23 = call ptr @dt_database_get(ptr noundef %22)
  %24 = call i32 @sqlite3_prepare_v2(ptr noundef %23, ptr noundef @.str.4, i32 noundef -1, ptr noundef %3, ptr noundef null)
  store i32 %24, ptr %4, align 4, !tbaa !24
  %25 = load i32, ptr %4, align 4, !tbaa !24
  %26 = icmp ne i32 %25, 0
  br i1 %26, label %27, label %33

27:                                               ; preds = %21
  %28 = load ptr, ptr @stderr, align 8, !tbaa !63
  %29 = load ptr, ptr getelementptr inbounds nuw (%struct.darktable_t, ptr @darktable, i32 0, i32 18), align 8, !tbaa !62
  %30 = call ptr @dt_database_get(ptr noundef %29)
  %31 = call ptr @sqlite3_errmsg(ptr noundef %30)
  %32 = call i32 (ptr, ptr, ...) @fprintf(ptr noundef %28, ptr noundef @.str.5, ptr noundef @.str.3, i32 noundef 148, ptr noundef @__FUNCTION__.dt_film_open, ptr noundef @.str.4, ptr noundef %31) #8
  br label %33

33:                                               ; preds = %27, %21
  call void @llvm.lifetime.end.p0(i64 4, ptr %4) #8
  br label %34

34:                                               ; preds = %33
  br label %35

35:                                               ; preds = %34
  call void @llvm.lifetime.start.p0(i64 4, ptr %5) #8
  %36 = load ptr, ptr %3, align 8, !tbaa !65
  %37 = load i32, ptr %2, align 4, !tbaa !24
  %38 = call i32 @sqlite3_bind_int(ptr noundef %36, i32 noundef 1, i32 noundef %37)
  store i32 %38, ptr %5, align 4, !tbaa !24
  %39 = load i32, ptr %5, align 4, !tbaa !24
  %40 = icmp ne i32 %39, 0
  br i1 %40, label %41, label %47

41:                                               ; preds = %35
  %42 = load ptr, ptr @stderr, align 8, !tbaa !63
  %43 = load ptr, ptr getelementptr inbounds nuw (%struct.darktable_t, ptr @darktable, i32 0, i32 18), align 8, !tbaa !62
  %44 = call ptr @dt_database_get(ptr noundef %43)
  %45 = call ptr @sqlite3_errmsg(ptr noundef %44)
  %46 = call i32 (ptr, ptr, ...) @fprintf(ptr noundef %42, ptr noundef @.str.6, ptr noundef @.str.3, i32 noundef 150, ptr noundef @__FUNCTION__.dt_film_open, ptr noundef %45) #8
  br label %47

47:                                               ; preds = %41, %35
  call void @llvm.lifetime.end.p0(i64 4, ptr %5) #8
  %48 = load ptr, ptr %3, align 8, !tbaa !65
  %49 = call i32 @sqlite3_step(ptr noundef %48)
  %50 = icmp eq i32 %49, 100
  br i1 %50, label %51, label %96

51:                                               ; preds = %47
  %52 = load ptr, ptr %3, align 8, !tbaa !65
  %53 = call i32 @sqlite3_finalize(ptr noundef %52)
  br label %54

54:                                               ; preds = %51
  br label %55

55:                                               ; preds = %54
  %56 = load i32, ptr getelementptr inbounds nuw (%struct.darktable_t, ptr @darktable, i32 0, i32 2), align 8, !tbaa !25
  %57 = and i32 256, %56
  %58 = icmp ne i32 %57, 0
  br i1 %58, label %59, label %65

59:                                               ; preds = %55
  %60 = load i32, ptr getelementptr inbounds nuw (%struct.darktable_t, ptr @darktable, i32 0, i32 2), align 8, !tbaa !25
  %61 = xor i32 %60, -1
  %62 = and i32 0, %61
  %63 = icmp ne i32 %62, 0
  br i1 %63, label %65, label %64

64:                                               ; preds = %59
  call void (ptr, ...) @dt_print_ext(ptr noundef @.str.2, ptr noundef @.str.3, i32 noundef 160, ptr noundef @__FUNCTION__.dt_film_open, ptr noundef @.str.9)
  br label %65

65:                                               ; preds = %64, %59, %55
  br label %66

66:                                               ; preds = %65
  br label %67

67:                                               ; preds = %66
  call void @llvm.lifetime.start.p0(i64 4, ptr %6) #8
  %68 = load ptr, ptr getelementptr inbounds nuw (%struct.darktable_t, ptr @darktable, i32 0, i32 18), align 8, !tbaa !62
  %69 = call ptr @dt_database_get(ptr noundef %68)
  %70 = call i32 @sqlite3_prepare_v2(ptr noundef %69, ptr noundef @.str.9, i32 noundef -1, ptr noundef %3, ptr noundef null)
  store i32 %70, ptr %6, align 4, !tbaa !24
  %71 = load i32, ptr %6, align 4, !tbaa !24
  %72 = icmp ne i32 %71, 0
  br i1 %72, label %73, label %79

73:                                               ; preds = %67
  %74 = load ptr, ptr @stderr, align 8, !tbaa !63
  %75 = load ptr, ptr getelementptr inbounds nuw (%struct.darktable_t, ptr @darktable, i32 0, i32 18), align 8, !tbaa !62
  %76 = call ptr @dt_database_get(ptr noundef %75)
  %77 = call ptr @sqlite3_errmsg(ptr noundef %76)
  %78 = call i32 (ptr, ptr, ...) @fprintf(ptr noundef %74, ptr noundef @.str.5, ptr noundef @.str.3, i32 noundef 160, ptr noundef @__FUNCTION__.dt_film_open, ptr noundef @.str.9, ptr noundef %77) #8
  br label %79

79:                                               ; preds = %73, %67
  call void @llvm.lifetime.end.p0(i64 4, ptr %6) #8
  br label %80

80:                                               ; preds = %79
  br label %81

81:                                               ; preds = %80
  call void @llvm.lifetime.start.p0(i64 4, ptr %7) #8
  %82 = load ptr, ptr %3, align 8, !tbaa !65
  %83 = load i32, ptr %2, align 4, !tbaa !24
  %84 = call i32 @sqlite3_bind_int(ptr noundef %82, i32 noundef 1, i32 noundef %83)
  store i32 %84, ptr %7, align 4, !tbaa !24
  %85 = load i32, ptr %7, align 4, !tbaa !24
  %86 = icmp ne i32 %85, 0
  br i1 %86, label %87, label %93

87:                                               ; preds = %81
  %88 = load ptr, ptr @stderr, align 8, !tbaa !63
  %89 = load ptr, ptr getelementptr inbounds nuw (%struct.darktable_t, ptr @darktable, i32 0, i32 18), align 8, !tbaa !62
  %90 = call ptr @dt_database_get(ptr noundef %89)
  %91 = call ptr @sqlite3_errmsg(ptr noundef %90)
  %92 = call i32 (ptr, ptr, ...) @fprintf(ptr noundef %88, ptr noundef @.str.6, ptr noundef @.str.3, i32 noundef 162, ptr noundef @__FUNCTION__.dt_film_open, ptr noundef %91) #8
  br label %93

93:                                               ; preds = %87, %81
  call void @llvm.lifetime.end.p0(i64 4, ptr %7) #8
  %94 = load ptr, ptr %3, align 8, !tbaa !65
  %95 = call i32 @sqlite3_step(ptr noundef %94)
  br label %96

96:                                               ; preds = %93, %47
  %97 = load ptr, ptr %3, align 8, !tbaa !65
  %98 = call i32 @sqlite3_finalize(ptr noundef %97)
  %99 = load i32, ptr %2, align 4, !tbaa !24
  call void @dt_film_set_query(i32 noundef %99)
  call void (...) @dt_control_queue_redraw_center()
  %100 = load ptr, ptr getelementptr inbounds nuw (%struct.darktable_t, ptr @darktable, i32 0, i32 11), align 8, !tbaa !70
  call void @dt_view_manager_reset(ptr noundef %100)
  call void @llvm.lifetime.end.p0(i64 8, ptr %3) #8
  ret i32 0
}