; Function Attrs: nounwind uwtable
define noundef i32 @dt_film_open(i32 noundef %0) local_unnamed_addr #0 {
  %2 = alloca ptr, align 8
  call void @llvm.lifetime.start.p0(i64 8, ptr nonnull %2) #11
  %3 = load i32, ptr getelementptr inbounds nuw (i8, ptr @darktable, i64 8), align 8, !tbaa !16
  %4 = and i32 %3, 256
  %.not = icmp eq i32 %4, 0
  br i1 %.not, label %6, label %5

5:                                                ; preds = %1
  tail call void (ptr, ...) @dt_print_ext(ptr noundef nonnull @.str.2, ptr noundef nonnull @.str.3, i32 noundef 148, ptr noundef nonnull @__FUNCTION__.dt_film_open, ptr noundef nonnull @.str.4) #11
  br label %6

6:                                                ; preds = %5, %1
  %7 = load ptr, ptr getelementptr inbounds nuw (i8, ptr @darktable, i64 136), align 8, !tbaa !53
  %8 = tail call ptr @dt_database_get(ptr noundef %7) #11
  %9 = call i32 @sqlite3_prepare_v2(ptr noundef %8, ptr noundef nonnull @.str.4, i32 noundef -1, ptr noundef nonnull %2, ptr noundef null) #11
  %.not7 = icmp eq i32 %9, 0
  br i1 %.not7, label %16, label %10

10:                                               ; preds = %6
  %11 = load ptr, ptr @stderr, align 8, !tbaa !54
  %12 = load ptr, ptr getelementptr inbounds nuw (i8, ptr @darktable, i64 136), align 8, !tbaa !53
  %13 = call ptr @dt_database_get(ptr noundef %12) #11
  %14 = call ptr @sqlite3_errmsg(ptr noundef %13) #11
  %15 = call i32 (ptr, ptr, ...) @fprintf(ptr noundef %11, ptr noundef nonnull @.str.5, ptr noundef nonnull @.str.3, i32 noundef 148, ptr noundef nonnull @__FUNCTION__.dt_film_open, ptr noundef nonnull @.str.4, ptr noundef %14) #12
  br label %16

16:                                               ; preds = %10, %6
  %17 = load ptr, ptr %2, align 8, !tbaa !56
  %18 = call i32 @sqlite3_bind_int(ptr noundef %17, i32 noundef 1, i32 noundef %0) #11
  %.not8 = icmp eq i32 %18, 0
  br i1 %.not8, label %25, label %19

19:                                               ; preds = %16
  %20 = load ptr, ptr @stderr, align 8, !tbaa !54
  %21 = load ptr, ptr getelementptr inbounds nuw (i8, ptr @darktable, i64 136), align 8, !tbaa !53
  %22 = call ptr @dt_database_get(ptr noundef %21) #11
  %23 = call ptr @sqlite3_errmsg(ptr noundef %22) #11
  %24 = call i32 (ptr, ptr, ...) @fprintf(ptr noundef %20, ptr noundef nonnull @.str.6, ptr noundef nonnull @.str.3, i32 noundef 150, ptr noundef nonnull @__FUNCTION__.dt_film_open, ptr noundef %23) #12
  br label %25

25:                                               ; preds = %19, %16
  %26 = load ptr, ptr %2, align 8, !tbaa !56
  %27 = call i32 @sqlite3_step(ptr noundef %26) #11
  %28 = icmp eq i32 %27, 100
  br i1 %28, label %29, label %57

29:                                               ; preds = %25
  %30 = load ptr, ptr %2, align 8, !tbaa !56
  %31 = call i32 @sqlite3_finalize(ptr noundef %30) #11
  %32 = load i32, ptr getelementptr inbounds nuw (i8, ptr @darktable, i64 8), align 8, !tbaa !16
  %33 = and i32 %32, 256
  %.not9 = icmp eq i32 %33, 0
  br i1 %.not9, label %35, label %34

34:                                               ; preds = %29
  call void (ptr, ...) @dt_print_ext(ptr noundef nonnull @.str.2, ptr noundef nonnull @.str.3, i32 noundef 160, ptr noundef nonnull @__FUNCTION__.dt_film_open, ptr noundef nonnull @.str.9) #11
  br label %35

35:                                               ; preds = %34, %29
  %36 = load ptr, ptr getelementptr inbounds nuw (i8, ptr @darktable, i64 136), align 8, !tbaa !53
  %37 = call ptr @dt_database_get(ptr noundef %36) #11
  %38 = call i32 @sqlite3_prepare_v2(ptr noundef %37, ptr noundef nonnull @.str.9, i32 noundef -1, ptr noundef nonnull %2, ptr noundef null) #11
  %.not10 = icmp eq i32 %38, 0
  br i1 %.not10, label %45, label %39

39:                                               ; preds = %35
  %40 = load ptr, ptr @stderr, align 8, !tbaa !54
  %41 = load ptr, ptr getelementptr inbounds nuw (i8, ptr @darktable, i64 136), align 8, !tbaa !53
  %42 = call ptr @dt_database_get(ptr noundef %41) #11
  %43 = call ptr @sqlite3_errmsg(ptr noundef %42) #11
  %44 = call i32 (ptr, ptr, ...) @fprintf(ptr noundef %40, ptr noundef nonnull @.str.5, ptr noundef nonnull @.str.3, i32 noundef 160, ptr noundef nonnull @__FUNCTION__.dt_film_open, ptr noundef nonnull @.str.9, ptr noundef %43) #12
  br label %45

45:                                               ; preds = %39, %35
  %46 = load ptr, ptr %2, align 8, !tbaa !56
  %47 = call i32 @sqlite3_bind_int(ptr noundef %46, i32 noundef 1, i32 noundef %0) #11
  %.not11 = icmp eq i32 %47, 0
  br i1 %.not11, label %54, label %48

48:                                               ; preds = %45
  %49 = load ptr, ptr @stderr, align 8, !tbaa !54
  %50 = load ptr, ptr getelementptr inbounds nuw (i8, ptr @darktable, i64 136), align 8, !tbaa !53
  %51 = call ptr @dt_database_get(ptr noundef %50) #11
  %52 = call ptr @sqlite3_errmsg(ptr noundef %51) #11
  %53 = call i32 (ptr, ptr, ...) @fprintf(ptr noundef %49, ptr noundef nonnull @.str.6, ptr noundef nonnull @.str.3, i32 noundef 162, ptr noundef nonnull @__FUNCTION__.dt_film_open, ptr noundef %52) #12
  br label %54

54:                                               ; preds = %48, %45
  %55 = load ptr, ptr %2, align 8, !tbaa !56
  %56 = call i32 @sqlite3_step(ptr noundef %55) #11
  br label %57

57:                                               ; preds = %54, %25
  %58 = load ptr, ptr %2, align 8, !tbaa !56
  %59 = call i32 @sqlite3_finalize(ptr noundef %58) #11
  call void @dt_film_set_query(i32 noundef %0)
  call void (...) @dt_control_queue_redraw_center() #11
  %60 = load ptr, ptr getelementptr inbounds nuw (i8, ptr @darktable, i64 80), align 8, !tbaa !59
  call void @dt_view_manager_reset(ptr noundef %60) #11
  call void @llvm.lifetime.end.p0(i64 8, ptr nonnull %2) #11
  ret i32 0
}